; Function Attrs: mustprogress uwtable
define void @_ZN5Ipopt11DenseVector22set_values_from_scalarEv(ptr noundef nonnull align 8 dereferenceable(248) %0) local_unnamed_addr #0 align 2 {
  %2 = getelementptr inbounds i8, ptr %0, i64 232
  store i8 1, ptr %2, align 8
  %3 = getelementptr inbounds i8, ptr %0, i64 233
  store i8 0, ptr %3, align 1
  %4 = getelementptr inbounds i8, ptr %0, i64 216
  %5 = load ptr, ptr %4, align 8
  %6 = icmp eq ptr %5, null
  br i1 %6, label %7, label %_ZN5Ipopt11DenseVector16values_allocatedEv.exit

7:                                                ; preds = %1
  %8 = getelementptr inbounds i8, ptr %0, i64 208
  %9 = load ptr, ptr %8, align 8
  %10 = getelementptr inbounds i8, ptr %9, i64 12
  %11 = load i32, ptr %10, align 4
  %12 = icmp sgt i32 %11, 0
  br i1 %12, label %13, label %_ZNK5Ipopt16DenseVectorSpace23AllocateInternalStorageEv.exit.i

13:                                               ; preds = %7
  %14 = zext nneg i32 %11 to i64
  %15 = shl nuw nsw i64 %14, 3
  %16 = tail call noalias noundef nonnull ptr @_Znam(i64 noundef %15) #18
  br label %_ZNK5Ipopt16DenseVectorSpace23AllocateInternalStorageEv.exit.i

_ZNK5Ipopt16DenseVectorSpace23AllocateInternalStorageEv.exit.i: ; preds = %13, %7
  %.0.i.i = phi ptr [ %16, %13 ], [ null, %7 ]
  store ptr %.0.i.i, ptr %4, align 8
  br label %_ZN5Ipopt11DenseVector16values_allocatedEv.exit

_ZN5Ipopt11DenseVector16values_allocatedEv.exit:  ; preds = %1, %_ZNK5Ipopt16DenseVectorSpace23AllocateInternalStorageEv.exit.i
  %17 = phi ptr [ %.0.i.i, %_ZNK5Ipopt16DenseVectorSpace23AllocateInternalStorageEv.exit.i ], [ %5, %1 ]
  %18 = getelementptr inbounds i8, ptr %0, i64 56
  %19 = load ptr, ptr %18, align 8
  %20 = getelementptr inbounds i8, ptr %19, i64 12
  %21 = load i32, ptr %20, align 4
  %22 = getelementptr inbounds i8, ptr %0, i64 240
  tail call void @_ZN5Ipopt10IpBlasCopyEiPKdiPdi(i32 noundef %21, ptr noundef nonnull %22, i32 noundef 0, ptr noundef %17, i32 noundef 1)
  ret void
}